target datalayout = "e-m:e-p270:32:32-p271:32:32-p272:64:64-i64:64-i128:128-f80:128-n8:16:32:64-S128"
target triple = "x86_64-pc-linux-gnu"

%"class.cvc5::internal::FatalStream" = type { i8 }

@.str = private unnamed_addr constant [5 x i8] c"NONE\00", align 1
@.str.1 = private unnamed_addr constant [9 x i8] c"SR_CONST\00", align 1
@.str.2 = private unnamed_addr constant [10 x i8] c"REDUCTION\00", align 1
@.str.3 = private unnamed_addr constant [14 x i8] c"ARITH_SR_ZERO\00", align 1
@.str.4 = private unnamed_addr constant [16 x i8] c"ARITH_SR_LINEAR\00", align 1
@.str.5 = private unnamed_addr constant [17 x i8] c"STRINGS_SR_CONST\00", align 1
@.str.6 = private unnamed_addr constant [20 x i8] c"STRINGS_NEG_CTN_DEQ\00", align 1
@.str.7 = private unnamed_addr constant [22 x i8] c"STRINGS_CTN_DECOMPOSE\00", align 1
@.str.8 = private unnamed_addr constant [21 x i8] c"STRINGS_REGEXP_INTER\00", align 1
@.str.9 = private unnamed_addr constant [29 x i8] c"STRINGS_REGEXP_INTER_SUBSUME\00", align 1
@.str.10 = private unnamed_addr constant [23 x i8] c"STRINGS_REGEXP_INCLUDE\00", align 1
@.str.11 = private unnamed_addr constant [27 x i8] c"STRINGS_REGEXP_INCLUDE_NEG\00", align 1
@.str.12 = private unnamed_addr constant [25 x i8] c"STRINGS_REGEXP_RE_SYM_NF\00", align 1
@.str.13 = private unnamed_addr constant [27 x i8] c"STRINGS_REGEXP_PDERIVATIVE\00", align 1
@.str.14 = private unnamed_addr constant [16 x i8] c"STRINGS_NTH_REV\00", align 1
@.str.15 = private unnamed_addr constant [2 x i8] c"?\00", align 1
@__PRETTY_FUNCTION__._ZN4cvc58internal6theory8toStringENS1_12ExtReducedIdE = private unnamed_addr constant [59 x i8] c"const char *cvc5::internal::theory::toString(ExtReducedId)\00", align 1
@.str.16 = private unnamed_addr constant [113 x i8] c"generated/home/dtcxzyw/WorkSpace/Projects/compilers/llvm-opt-benchmark/bench/cvc5/cvc5/src/theory/ext_theory.cpp\00", align 1
@.str.17 = private unnamed_addr constant [26 x i8] c"Unreachable code reached \00", align 1

; Function Attrs: mustprogress uwtable
define hidden noundef ptr @_ZN4cvc58internal6theory8toStringENS1_12ExtReducedIdE(i32 noundef %0) #4 personality ptr @__gxx_personality_v0 {
  %2 = alloca ptr, align 8
  %3 = alloca i32, align 4
  %4 = alloca %"class.cvc5::internal::FatalStream", align 1
  %5 = alloca ptr, align 8
  %6 = alloca i32, align 4
  store i32 %0, ptr %3, align 4, !tbaa !3
  %7 = load i32, ptr %3, align 4, !tbaa !3
  switch i32 %7, label %24 [
    i32 0, label %8
    i32 1, label %9
    i32 2, label %10
    i32 3, label %11
    i32 4, label %12
    i32 5, label %13
    i32 6, label %14
    i32 7, label %15
    i32 8, label %16
    i32 9, label %17
    i32 10, label %18
    i32 11, label %19
    i32 12, label %20
    i32 13, label %21
    i32 14, label %22
    i32 15, label %23
  ]

8:                                                ; preds = %1
  store ptr @.str, ptr %2, align 8
  br label %34

9:                                                ; preds = %1
  store ptr @.str.1, ptr %2, align 8
  br label %34

10:                                               ; preds = %1
  store ptr @.str.2, ptr %2, align 8
  br label %34

11:                                               ; preds = %1
  store ptr @.str.3, ptr %2, align 8
  br label %34

12:                                               ; preds = %1
  store ptr @.str.4, ptr %2, align 8
  br label %34

13:                                               ; preds = %1
  store ptr @.str.5, ptr %2, align 8
  br label %34

14:                                               ; preds = %1
  store ptr @.str.6, ptr %2, align 8
  br label %34

15:                                               ; preds = %1
  store ptr @.str.7, ptr %2, align 8
  br label %34

16:                                               ; preds = %1
  store ptr @.str.8, ptr %2, align 8
  br label %34

17:                                               ; preds = %1
  store ptr @.str.9, ptr %2, align 8
  br label %34

18:                                               ; preds = %1
  store ptr @.str.10, ptr %2, align 8
  br label %34

19:                                               ; preds = %1
  store ptr @.str.11, ptr %2, align 8
  br label %34

20:                                               ; preds = %1
  store ptr @.str.12, ptr %2, align 8
  br label %34

21:                                               ; preds = %1
  store ptr @.str.13, ptr %2, align 8
  br label %34

22:                                               ; preds = %1
  store ptr @.str.14, ptr %2, align 8
  br label %34

23:                                               ; preds = %1
  store ptr @.str.15, ptr %2, align 8
  br label %34

24:                                               ; preds = %1
  call void @llvm.lifetime.start.p0(i64 1, ptr %4) #3
  call void @_ZN4cvc58internal11FatalStreamC1EPKcS3_i(ptr noundef nonnull align 1 dereferenceable(1) %4, ptr noundef @__PRETTY_FUNCTION__._ZN4cvc58internal6theory8toStringENS1_12ExtReducedIdE, ptr noundef @.str.16, i32 noundef 59)
  %25 = invoke noundef nonnull align 8 dereferenceable(8) ptr @_ZN4cvc58internal11FatalStream6streamEv(ptr noundef nonnull align 1 dereferenceable(1) %4)
          to label %26 unwind label %29

26:                                               ; preds = %24
  %27 = invoke noundef nonnull align 8 dereferenceable(8) ptr @_ZStlsISt11char_traitsIcEERSt13basic_ostreamIcT_ES5_PKc(ptr noundef nonnull align 8 dereferenceable(8) %25, ptr noundef @.str.17)
          to label %28 unwind label %29

28:                                               ; preds = %26
  call void @_ZN4cvc58internal11FatalStreamD1Ev(ptr noundef nonnull align 1 dereferenceable(1) %4) #22
  unreachable

29:                                               ; preds = %26, %24
  %30 = landingpad { ptr, i32 }
          cleanup
  %31 = extractvalue { ptr, i32 } %30, 0
  store ptr %31, ptr %5, align 8
  %32 = extractvalue { ptr, i32 } %30, 1
  store i32 %32, ptr %6, align 4
  call void @_ZN4cvc58internal11FatalStreamD1Ev(ptr noundef nonnull align 1 dereferenceable(1) %4) #22
  unreachable

33:                                               ; No predecessors!
  call void @llvm.lifetime.end.p0(i64 1, ptr %4) #3
  br label %36

34:                                               ; preds = %23, %22, %21, %20, %19, %18, %17, %16, %15, %14, %13, %12, %11, %10, %9, %8
  %35 = load ptr, ptr %2, align 8
  ret ptr %35

36:                                               ; preds = %33
  %37 = load ptr, ptr %5, align 8
  %38 = load i32, ptr %6, align 4
  %39 = insertvalue { ptr, i32 } poison, ptr %37, 0
  %40 = insertvalue { ptr, i32 } %39, i32 %38, 1
  resume { ptr, i32 } %40
}