; Function Attrs: mustprogress uwtable
define hidden noundef nonnull ptr @_ZN4cvc58internal6theory8toStringENS1_12ExtReducedIdE(i32 noundef %0) local_unnamed_addr #3 personality ptr @__gxx_personality_v0 {
  %2 = alloca %"class.cvc5::internal::FatalStream", align 1
  %3 = icmp ult i32 %0, 16
  br i1 %3, label %switch.lookup, label %4

4:                                                ; preds = %1
  call void @llvm.lifetime.start.p0(i64 1, ptr nonnull %2) #26
  call void @_ZN4cvc58internal11FatalStreamC1EPKcS3_i(ptr noundef nonnull align 1 dereferenceable(1) %2, ptr noundef nonnull @__PRETTY_FUNCTION__._ZN4cvc58internal6theory8toStringENS1_12ExtReducedIdE, ptr noundef nonnull @.str.16, i32 noundef 59)
  %5 = invoke noundef nonnull align 8 dereferenceable(8) ptr @_ZN4cvc58internal11FatalStream6streamEv(ptr noundef nonnull align 1 dereferenceable(1) %2)
          to label %6 unwind label %9

6:                                                ; preds = %4
  %7 = invoke noundef nonnull align 8 dereferenceable(8) ptr @_ZStlsISt11char_traitsIcEERSt13basic_ostreamIcT_ES5_PKc(ptr noundef nonnull align 8 dereferenceable(8) %5, ptr noundef nonnull @.str.17)
          to label %8 unwind label %9

8:                                                ; preds = %6
  call void @_ZN4cvc58internal11FatalStreamD1Ev(ptr noundef nonnull align 1 dereferenceable(1) %2) #27
  unreachable

9:                                                ; preds = %6, %4
  %10 = landingpad { ptr, i32 }
          cleanup
  call void @_ZN4cvc58internal11FatalStreamD1Ev(ptr noundef nonnull align 1 dereferenceable(1) %2) #27
  unreachable

switch.lookup:                                    ; preds = %1
  %11 = zext nneg i32 %0 to i64
  %switch.gep = getelementptr inbounds nuw [16 x ptr], ptr @switch.table._ZN4cvc58internal6theory8toStringENS1_12ExtReducedIdE, i64 0, i64 %11
  %switch.load = load ptr, ptr %switch.gep, align 8
  ret ptr %switch.load
}